target datalayout = "e-m:e-p270:32:32-p271:32:32-p272:64:64-i64:64-i128:128-f80:128-n8:16:32:64-S128"
target triple = "x86_64-unknown-linux-gnu"

%"class.std::set.0" = type { %"class.std::_Rb_tree.1" }
%"class.std::_Rb_tree.1" = type { %"struct.std::_Rb_tree<QuantLib::Observer *, QuantLib::Observer *, std::_Identity<QuantLib::Observer *>, std::less<QuantLib::Observer *>>::_Rb_tree_impl" }
%"struct.std::_Rb_tree<QuantLib::Observer *, QuantLib::Observer *, std::_Identity<QuantLib::Observer *>, std::less<QuantLib::Observer *>>::_Rb_tree_impl" = type { [8 x i8], %"struct.std::_Rb_tree_header" }
%"struct.std::_Rb_tree_header" = type { %"struct.std::_Rb_tree_node_base", i64 }
%"struct.std::_Rb_tree_node_base" = type { i32, ptr, ptr, ptr }
%"class.std::set" = type { %"class.std::_Rb_tree" }
%"class.std::_Rb_tree" = type { %"struct.std::_Rb_tree<boost::shared_ptr<QuantLib::Observable>, boost::shared_ptr<QuantLib::Observable>, std::_Identity<boost::shared_ptr<QuantLib::Observable>>, std::less<boost::shared_ptr<QuantLib::Observable>>>::_Rb_tree_impl" }
%"struct.std::_Rb_tree<boost::shared_ptr<QuantLib::Observable>, boost::shared_ptr<QuantLib::Observable>, std::_Identity<boost::shared_ptr<QuantLib::Observable>>, std::less<boost::shared_ptr<QuantLib::Observable>>>::_Rb_tree_impl" = type { [8 x i8], %"struct.std::_Rb_tree_header" }
%"class.boost::detail::shared_count" = type { ptr }
%"class.QuantLib::Observable" = type { ptr, %"class.std::set.0" }
%"class.QuantLib::Observer" = type { ptr, %"class.std::set" }
%"class.QuantLib::CashFlow.base" = type <{ %"class.QuantLib::Event.base", %"class.QuantLib::LazyObject.base" }>
%"class.QuantLib::Event.base" = type { ptr }
%"class.QuantLib::LazyObject.base" = type <{ ptr, i8, i8, i8, i8 }>
%"class.QuantLib::Date" = type { i64 }
%"class.QuantLib::DayCounter" = type { %"class.boost::shared_ptr.6" }
%"class.boost::shared_ptr.6" = type { ptr, %"class.boost::detail::shared_count" }
%"class.QuantLib::FixedRateCoupon" = type { %"class.QuantLib::Coupon.base", %"class.QuantLib::InterestRate", double, %"class.QuantLib::Observable", %"class.QuantLib::Observer" }
%"class.QuantLib::Coupon.base" = type { %"class.QuantLib::CashFlow.base", %"class.QuantLib::Date", double, %"class.QuantLib::Date", %"class.QuantLib::Date", %"class.QuantLib::Date", %"class.QuantLib::Date", %"class.QuantLib::Date", double }
%"class.QuantLib::InterestRate" = type { double, %"class.QuantLib::DayCounter", i32, i8, double }

; Function Attrs: mustprogress nounwind uwtable
define linkonce_odr void @_ZN5boost6detail12shared_countC2EOS1_(ptr noundef nonnull align 8 dereferenceable(8) %this, ptr noundef nonnull align 8 dereferenceable(8) %r) unnamed_addr #1 comdat align 2 {
entry:
  %this.addr = alloca ptr, align 8
  %r.addr = alloca ptr, align 8
  store ptr %this, ptr %this.addr, align 8, !tbaa !3
  store ptr %r, ptr %r.addr, align 8, !tbaa !3
  %this1 = load ptr, ptr %this.addr, align 8
  %pi_ = getelementptr inbounds nuw %"class.boost::detail::shared_count", ptr %this1, i32 0, i32 0
  %0 = load ptr, ptr %r.addr, align 8, !tbaa !3
  %pi_2 = getelementptr inbounds nuw %"class.boost::detail::shared_count", ptr %0, i32 0, i32 0
  %1 = load ptr, ptr %pi_2, align 8, !tbaa !140
  store ptr %1, ptr %pi_, align 8, !tbaa !140
  %2 = load ptr, ptr %r.addr, align 8, !tbaa !3
  %pi_3 = getelementptr inbounds nuw %"class.boost::detail::shared_count", ptr %2, i32 0, i32 0
  store ptr null, ptr %pi_3, align 8, !tbaa !140
  ret void
}

; Function Attrs: mustprogress nounwind uwtable
define linkonce_odr void @_ZN5boost10shared_ptrIN8QuantLib10DayCounter4ImplEEC2EOS4_(ptr noundef nonnull align 8 dereferenceable(16) %this, ptr noundef nonnull align 8 dereferenceable(16) %r) unnamed_addr #1 comdat align 2 {
entry:
  %this.addr = alloca ptr, align 8
  %r.addr = alloca ptr, align 8
  store ptr %this, ptr %this.addr, align 8, !tbaa !3
  store ptr %r, ptr %r.addr, align 8, !tbaa !3
  %this1 = load ptr, ptr %this.addr, align 8
  %px = getelementptr inbounds nuw %"class.boost::shared_ptr.6", ptr %this1, i32 0, i32 0
  %0 = load ptr, ptr %r.addr, align 8, !tbaa !3
  %px2 = getelementptr inbounds nuw %"class.boost::shared_ptr.6", ptr %0, i32 0, i32 0
  %1 = load ptr, ptr %px2, align 8, !tbaa !141
  store ptr %1, ptr %px, align 8, !tbaa !141
  %pn = getelementptr inbounds nuw %"class.boost::shared_ptr.6", ptr %this1, i32 0, i32 1
  %2 = load ptr, ptr %r.addr, align 8, !tbaa !3
  %pn3 = getelementptr inbounds nuw %"class.boost::shared_ptr.6", ptr %2, i32 0, i32 1
  call void @_ZN5boost6detail12shared_countC2EOS1_(ptr noundef nonnull align 8 dereferenceable(8) %pn, ptr noundef nonnull align 8 dereferenceable(8) %pn3) #16
  %3 = load ptr, ptr %r.addr, align 8, !tbaa !3
  %px4 = getelementptr inbounds nuw %"class.boost::shared_ptr.6", ptr %3, i32 0, i32 0
  store ptr null, ptr %px4, align 8, !tbaa !141
  ret void
}

; Function Attrs: inlinehint mustprogress nounwind uwtable
define linkonce_odr void @_ZN8QuantLib10DayCounterC2EOS0_(ptr noundef nonnull align 8 dereferenceable(16) %this, ptr noundef nonnull align 8 dereferenceable(16) %0) unnamed_addr #5 comdat align 2 {
entry:
  %this.addr = alloca ptr, align 8
  %.addr = alloca ptr, align 8
  store ptr %this, ptr %this.addr, align 8, !tbaa !3
  store ptr %0, ptr %.addr, align 8, !tbaa !3
  %this1 = load ptr, ptr %this.addr, align 8
  %impl_ = getelementptr inbounds nuw %"class.QuantLib::DayCounter", ptr %this1, i32 0, i32 0
  %1 = load ptr, ptr %.addr, align 8, !tbaa !3
  %impl_2 = getelementptr inbounds nuw %"class.QuantLib::DayCounter", ptr %1, i32 0, i32 0
  call void @_ZN5boost10shared_ptrIN8QuantLib10DayCounter4ImplEEC2EOS4_(ptr noundef nonnull align 8 dereferenceable(16) %impl_, ptr noundef nonnull align 8 dereferenceable(16) %impl_2) #16
  ret void
}

; Function Attrs: inlinehint mustprogress nounwind uwtable
define linkonce_odr void @_ZN8QuantLib12InterestRateC2EOS0_(ptr noundef nonnull align 8 dereferenceable(40) %this, ptr noundef nonnull align 8 dereferenceable(40) %0) unnamed_addr #5 comdat align 2 {
entry:
  %this.addr = alloca ptr, align 8
  %.addr = alloca ptr, align 8
  store ptr %this, ptr %this.addr, align 8, !tbaa !3
  store ptr %0, ptr %.addr, align 8, !tbaa !3
  %this1 = load ptr, ptr %this.addr, align 8
  %r_ = getelementptr inbounds nuw %"class.QuantLib::InterestRate", ptr %this1, i32 0, i32 0
  %1 = load ptr, ptr %.addr, align 8, !tbaa !3
  %r_2 = getelementptr inbounds nuw %"class.QuantLib::InterestRate", ptr %1, i32 0, i32 0
  %2 = load double, ptr %r_2, align 8, !tbaa !32
  store double %2, ptr %r_, align 8, !tbaa !32
  %dc_ = getelementptr inbounds nuw %"class.QuantLib::InterestRate", ptr %this1, i32 0, i32 1
  %3 = load ptr, ptr %.addr, align 8, !tbaa !3
  %dc_3 = getelementptr inbounds nuw %"class.QuantLib::InterestRate", ptr %3, i32 0, i32 1
  call void @_ZN8QuantLib10DayCounterC2EOS0_(ptr noundef nonnull align 8 dereferenceable(16) %dc_, ptr noundef nonnull align 8 dereferenceable(16) %dc_3) #16
  %comp_ = getelementptr inbounds nuw %"class.QuantLib::InterestRate", ptr %this1, i32 0, i32 2
  %4 = load ptr, ptr %.addr, align 8
  %comp_4 = getelementptr inbounds nuw %"class.QuantLib::InterestRate", ptr %4, i32 0, i32 2
  call void @llvm.memcpy.p0.p0.i64(ptr align 8 %comp_, ptr align 8 %comp_4, i64 16, i1 false)
  ret void
}

; Function Attrs: mustprogress uwtable
define void @_ZN8QuantLib15FixedRateCouponC2ERKNS_4DateEdNS_12InterestRateES3_S3_S3_S3_S3_(ptr noundef nonnull align 8 dereferenceable(136) %this, ptr noundef %vtt, ptr noundef nonnull align 8 dereferenceable(8) %paymentDate, double noundef %nominal, ptr noundef %interestRate, ptr noundef nonnull align 8 dereferenceable(8) %accrualStartDate, ptr noundef nonnull align 8 dereferenceable(8) %accrualEndDate, ptr noundef nonnull align 8 dereferenceable(8) %refPeriodStart, ptr noundef nonnull align 8 dereferenceable(8) %refPeriodEnd, ptr noundef nonnull align 8 dereferenceable(8) %exCouponDate) unnamed_addr #2 align 2 {
entry:
  %this.addr = alloca ptr, align 8
  %vtt.addr = alloca ptr, align 8
  %paymentDate.addr = alloca ptr, align 8
  %nominal.addr = alloca double, align 8
  %interestRate.indirect_addr = alloca ptr, align 8
  %accrualStartDate.addr = alloca ptr, align 8
  %accrualEndDate.addr = alloca ptr, align 8
  %refPeriodStart.addr = alloca ptr, align 8
  %refPeriodEnd.addr = alloca ptr, align 8
  %exCouponDate.addr = alloca ptr, align 8
  store ptr %this, ptr %this.addr, align 8, !tbaa !3
  store ptr %vtt, ptr %vtt.addr, align 8, !tbaa !3
  store ptr %paymentDate, ptr %paymentDate.addr, align 8, !tbaa !3
  store double %nominal, ptr %nominal.addr, align 8, !tbaa !31
  store ptr %interestRate, ptr %interestRate.indirect_addr, align 8, !tbaa !3
  store ptr %accrualStartDate, ptr %accrualStartDate.addr, align 8, !tbaa !3
  store ptr %accrualEndDate, ptr %accrualEndDate.addr, align 8, !tbaa !3
  store ptr %refPeriodStart, ptr %refPeriodStart.addr, align 8, !tbaa !3
  store ptr %refPeriodEnd, ptr %refPeriodEnd.addr, align 8, !tbaa !3
  store ptr %exCouponDate, ptr %exCouponDate.addr, align 8, !tbaa !3
  %this1 = load ptr, ptr %this.addr, align 8
  %vtt2 = load ptr, ptr %vtt.addr, align 8
  %0 = load ptr, ptr %paymentDate.addr, align 8, !tbaa !3
  %1 = load double, ptr %nominal.addr, align 8, !tbaa !31
  %2 = load ptr, ptr %accrualStartDate.addr, align 8, !tbaa !3
  %3 = load ptr, ptr %accrualEndDate.addr, align 8, !tbaa !3
  %4 = load ptr, ptr %refPeriodStart.addr, align 8, !tbaa !3
  %5 = load ptr, ptr %refPeriodEnd.addr, align 8, !tbaa !3
  %6 = load ptr, ptr %exCouponDate.addr, align 8, !tbaa !3
  %7 = getelementptr inbounds ptr, ptr %vtt2, i64 1
  call void @_ZN8QuantLib6CouponC2ERKNS_4DateEdS3_S3_S3_S3_S3_(ptr noundef nonnull align 8 dereferenceable(88) %this1, ptr noundef %7, ptr noundef nonnull align 8 dereferenceable(8) %0, double noundef %1, ptr noundef nonnull align 8 dereferenceable(8) %2, ptr noundef nonnull align 8 dereferenceable(8) %3, ptr noundef nonnull align 8 dereferenceable(8) %4, ptr noundef nonnull align 8 dereferenceable(8) %5, ptr noundef nonnull align 8 dereferenceable(8) %6)
  %8 = load ptr, ptr %vtt2, align 8
  store ptr %8, ptr %this1, align 8, !tbaa !20
  %9 = getelementptr inbounds ptr, ptr %vtt2, i64 14
  %10 = load ptr, ptr %9, align 8
  %vtable = load ptr, ptr %this1, align 8, !tbaa !20
  %vbase.offset.ptr = getelementptr i8, ptr %vtable, i64 -24
  %vbase.offset = load i64, ptr %vbase.offset.ptr, align 8
  %add.ptr = getelementptr inbounds i8, ptr %this1, i64 %vbase.offset
  store ptr %10, ptr %add.ptr, align 8, !tbaa !20
  %11 = getelementptr inbounds ptr, ptr %vtt2, i64 15
  %12 = load ptr, ptr %11, align 8
  %add.ptr3 = getelementptr inbounds i8, ptr %this1, i64 8
  store ptr %12, ptr %add.ptr3, align 8, !tbaa !20
  %13 = getelementptr inbounds ptr, ptr %vtt2, i64 16
  %14 = load ptr, ptr %13, align 8
  %vtable4 = load ptr, ptr %this1, align 8, !tbaa !20
  %vbase.offset.ptr5 = getelementptr i8, ptr %vtable4, i64 -32
  %vbase.offset6 = load i64, ptr %vbase.offset.ptr5, align 8
  %add.ptr7 = getelementptr inbounds i8, ptr %this1, i64 %vbase.offset6
  store ptr %14, ptr %add.ptr7, align 8, !tbaa !20
  %rate_ = getelementptr inbounds nuw %"class.QuantLib::FixedRateCoupon", ptr %this1, i32 0, i32 1
  call void @_ZN8QuantLib12InterestRateC2EOS0_(ptr noundef nonnull align 8 dereferenceable(40) %rate_, ptr noundef nonnull align 8 dereferenceable(40) %interestRate) #16
  ret void
}