; Function Attrs: mustprogress uwtable
define void @_ZN8QuantLib15FixedRateCouponC2ERKNS_4DateEdNS_12InterestRateES3_S3_S3_S3_S3_(ptr noundef nonnull align 8 dereferenceable(136) %this, ptr noundef %vtt, ptr noundef nonnull align 8 dereferenceable(8) %paymentDate, double noundef %nominal, ptr nocapture noundef %interestRate, ptr noundef nonnull align 8 dereferenceable(8) %accrualStartDate, ptr noundef nonnull align 8 dereferenceable(8) %accrualEndDate, ptr noundef nonnull align 8 dereferenceable(8) %refPeriodStart, ptr noundef nonnull align 8 dereferenceable(8) %refPeriodEnd, ptr noundef nonnull align 8 dereferenceable(8) %exCouponDate) unnamed_addr #8 align 2 {
entry:
  %0 = getelementptr inbounds i8, ptr %vtt, i64 8
  tail call void @_ZN8QuantLib6CouponC2ERKNS_4DateEdS3_S3_S3_S3_S3_(ptr noundef nonnull align 8 dereferenceable(88) %this, ptr noundef nonnull %0, ptr noundef nonnull align 8 dereferenceable(8) %paymentDate, double noundef %nominal, ptr noundef nonnull align 8 dereferenceable(8) %accrualStartDate, ptr noundef nonnull align 8 dereferenceable(8) %accrualEndDate, ptr noundef nonnull align 8 dereferenceable(8) %refPeriodStart, ptr noundef nonnull align 8 dereferenceable(8) %refPeriodEnd, ptr noundef nonnull align 8 dereferenceable(8) %exCouponDate)
  %1 = load ptr, ptr %vtt, align 8
  store ptr %1, ptr %this, align 8, !tbaa !33
  %2 = getelementptr inbounds i8, ptr %vtt, i64 112
  %3 = load ptr, ptr %2, align 8
  %vbase.offset.ptr = getelementptr i8, ptr %1, i64 -24
  %vbase.offset = load i64, ptr %vbase.offset.ptr, align 8
  %add.ptr = getelementptr inbounds i8, ptr %this, i64 %vbase.offset
  store ptr %3, ptr %add.ptr, align 8, !tbaa !33
  %4 = getelementptr inbounds i8, ptr %vtt, i64 120
  %5 = load ptr, ptr %4, align 8
  %add.ptr3 = getelementptr inbounds i8, ptr %this, i64 8
  store ptr %5, ptr %add.ptr3, align 8, !tbaa !33
  %6 = getelementptr inbounds i8, ptr %vtt, i64 128
  %7 = load ptr, ptr %6, align 8
  %vtable4 = load ptr, ptr %this, align 8, !tbaa !33
  %vbase.offset.ptr5 = getelementptr i8, ptr %vtable4, i64 -32
  %vbase.offset6 = load i64, ptr %vbase.offset.ptr5, align 8
  %add.ptr7 = getelementptr inbounds i8, ptr %this, i64 %vbase.offset6
  store ptr %7, ptr %add.ptr7, align 8, !tbaa !33
  %rate_ = getelementptr inbounds nuw i8, ptr %this, i64 88
  %8 = load double, ptr %interestRate, align 8, !tbaa !45
  store double %8, ptr %rate_, align 8, !tbaa !45
  %dc_.i = getelementptr inbounds nuw i8, ptr %this, i64 96
  %dc_3.i = getelementptr inbounds nuw i8, ptr %interestRate, i64 8
  %9 = load ptr, ptr %dc_3.i, align 8, !tbaa !41
  store ptr %9, ptr %dc_.i, align 8, !tbaa !41
  %pn.i.i.i = getelementptr inbounds nuw i8, ptr %this, i64 104
  %pn3.i.i.i = getelementptr inbounds nuw i8, ptr %interestRate, i64 16
  %10 = load ptr, ptr %pn3.i.i.i, align 8, !tbaa !44
  store ptr %10, ptr %pn.i.i.i, align 8, !tbaa !44
  tail call void @llvm.memset.p0.i64(ptr noundef nonnull align 8 dereferenceable(16) %dc_3.i, i8 0, i64 16, i1 false)
  %comp_.i = getelementptr inbounds nuw i8, ptr %this, i64 112
  %comp_4.i = getelementptr inbounds nuw i8, ptr %interestRate, i64 24
  tail call void @llvm.memcpy.p0.p0.i64(ptr noundef nonnull align 8 dereferenceable(16) %comp_.i, ptr noundef nonnull align 8 dereferenceable(16) %comp_4.i, i64 16, i1 false)
  ret void
}